target datalayout = "e-m:e-p270:32:32-p271:32:32-p272:64:64-i64:64-i128:128-f80:128-n8:16:32:64-S128"
target triple = "x86_64-pc-linux-gnu"

%struct.par_shapes_mesh_s = type { ptr, i32, ptr, i32, ptr, ptr }

; Function Attrs: nounwind uwtable
define hidden void @par_shapes_merge(ptr noundef %0, ptr noundef %1) #0 {
  %3 = alloca ptr, align 8
  %4 = alloca ptr, align 8
  %5 = alloca i16, align 2
  %6 = alloca i32, align 4
  %7 = alloca i32, align 4
  %8 = alloca i32, align 4
  %9 = alloca i32, align 4
  %10 = alloca ptr, align 8
  %11 = alloca ptr, align 8
  %12 = alloca i32, align 4
  store ptr %0, ptr %3, align 8
  store ptr %1, ptr %4, align 8
  call void @llvm.lifetime.start.p0(i64 2, ptr %5) #16
  %13 = load ptr, ptr %3, align 8
  %14 = getelementptr inbounds nuw %struct.par_shapes_mesh_s, ptr %13, i32 0, i32 1
  %15 = load i32, ptr %14, align 8
  %16 = trunc i32 %15 to i16
  store i16 %16, ptr %5, align 2
  call void @llvm.lifetime.start.p0(i64 4, ptr %6) #16
  %17 = load ptr, ptr %3, align 8
  %18 = getelementptr inbounds nuw %struct.par_shapes_mesh_s, ptr %17, i32 0, i32 1
  %19 = load i32, ptr %18, align 8
  %20 = load ptr, ptr %4, align 8
  %21 = getelementptr inbounds nuw %struct.par_shapes_mesh_s, ptr %20, i32 0, i32 1
  %22 = load i32, ptr %21, align 8
  %23 = add nsw i32 %19, %22
  store i32 %23, ptr %6, align 4
  call void @llvm.lifetime.start.p0(i64 4, ptr %7) #16
  store i32 12, ptr %7, align 4
  %24 = load ptr, ptr %3, align 8
  %25 = getelementptr inbounds nuw %struct.par_shapes_mesh_s, ptr %24, i32 0, i32 0
  %26 = load ptr, ptr %25, align 8
  %27 = load i32, ptr %6, align 4
  %28 = mul nsw i32 3, %27
  %29 = sext i32 %28 to i64
  %30 = mul i64 4, %29
  %31 = call ptr @realloc(ptr noundef %26, i64 noundef %30) #18
  %32 = load ptr, ptr %3, align 8
  %33 = getelementptr inbounds nuw %struct.par_shapes_mesh_s, ptr %32, i32 0, i32 0
  store ptr %31, ptr %33, align 8
  %34 = load ptr, ptr %3, align 8
  %35 = getelementptr inbounds nuw %struct.par_shapes_mesh_s, ptr %34, i32 0, i32 0
  %36 = load ptr, ptr %35, align 8
  %37 = load ptr, ptr %3, align 8
  %38 = getelementptr inbounds nuw %struct.par_shapes_mesh_s, ptr %37, i32 0, i32 1
  %39 = load i32, ptr %38, align 8
  %40 = mul nsw i32 3, %39
  %41 = sext i32 %40 to i64
  %42 = getelementptr inbounds float, ptr %36, i64 %41
  %43 = load ptr, ptr %4, align 8
  %44 = getelementptr inbounds nuw %struct.par_shapes_mesh_s, ptr %43, i32 0, i32 0
  %45 = load ptr, ptr %44, align 8
  %46 = load i32, ptr %7, align 4
  %47 = load ptr, ptr %4, align 8
  %48 = getelementptr inbounds nuw %struct.par_shapes_mesh_s, ptr %47, i32 0, i32 1
  %49 = load i32, ptr %48, align 8
  %50 = mul nsw i32 %46, %49
  %51 = sext i32 %50 to i64
  call void @llvm.memcpy.p0.p0.i64(ptr align 4 %42, ptr align 4 %45, i64 %51, i1 false)
  %52 = load i32, ptr %6, align 4
  %53 = load ptr, ptr %3, align 8
  %54 = getelementptr inbounds nuw %struct.par_shapes_mesh_s, ptr %53, i32 0, i32 1
  store i32 %52, ptr %54, align 8
  %55 = load ptr, ptr %4, align 8
  %56 = getelementptr inbounds nuw %struct.par_shapes_mesh_s, ptr %55, i32 0, i32 4
  %57 = load ptr, ptr %56, align 8
  %58 = icmp ne ptr %57, null
  br i1 %58, label %64, label %59

59:                                               ; preds = %2
  %60 = load ptr, ptr %3, align 8
  %61 = getelementptr inbounds nuw %struct.par_shapes_mesh_s, ptr %60, i32 0, i32 4
  %62 = load ptr, ptr %61, align 8
  %63 = icmp ne ptr %62, null
  br i1 %63, label %64, label %98

64:                                               ; preds = %59, %2
  %65 = load ptr, ptr %3, align 8
  %66 = getelementptr inbounds nuw %struct.par_shapes_mesh_s, ptr %65, i32 0, i32 4
  %67 = load ptr, ptr %66, align 8
  %68 = load i32, ptr %6, align 4
  %69 = mul nsw i32 3, %68
  %70 = sext i32 %69 to i64
  %71 = mul i64 4, %70
  %72 = call ptr @realloc(ptr noundef %67, i64 noundef %71) #18
  %73 = load ptr, ptr %3, align 8
  %74 = getelementptr inbounds nuw %struct.par_shapes_mesh_s, ptr %73, i32 0, i32 4
  store ptr %72, ptr %74, align 8
  %75 = load ptr, ptr %4, align 8
  %76 = getelementptr inbounds nuw %struct.par_shapes_mesh_s, ptr %75, i32 0, i32 4
  %77 = load ptr, ptr %76, align 8
  %78 = icmp ne ptr %77, null
  br i1 %78, label %79, label %97

79:                                               ; preds = %64
  %80 = load ptr, ptr %3, align 8
  %81 = getelementptr inbounds nuw %struct.par_shapes_mesh_s, ptr %80, i32 0, i32 4
  %82 = load ptr, ptr %81, align 8
  %83 = load i16, ptr %5, align 2
  %84 = zext i16 %83 to i32
  %85 = mul nsw i32 3, %84
  %86 = sext i32 %85 to i64
  %87 = getelementptr inbounds float, ptr %82, i64 %86
  %88 = load ptr, ptr %4, align 8
  %89 = getelementptr inbounds nuw %struct.par_shapes_mesh_s, ptr %88, i32 0, i32 4
  %90 = load ptr, ptr %89, align 8
  %91 = load i32, ptr %7, align 4
  %92 = load ptr, ptr %4, align 8
  %93 = getelementptr inbounds nuw %struct.par_shapes_mesh_s, ptr %92, i32 0, i32 1
  %94 = load i32, ptr %93, align 8
  %95 = mul nsw i32 %91, %94
  %96 = sext i32 %95 to i64
  call void @llvm.memcpy.p0.p0.i64(ptr align 4 %87, ptr align 4 %90, i64 %96, i1 false)
  br label %97

97:                                               ; preds = %79, %64
  br label %98

98:                                               ; preds = %97, %59
  %99 = load ptr, ptr %4, align 8
  %100 = getelementptr inbounds nuw %struct.par_shapes_mesh_s, ptr %99, i32 0, i32 5
  %101 = load ptr, ptr %100, align 8
  %102 = icmp ne ptr %101, null
  br i1 %102, label %108, label %103

103:                                              ; preds = %98
  %104 = load ptr, ptr %3, align 8
  %105 = getelementptr inbounds nuw %struct.par_shapes_mesh_s, ptr %104, i32 0, i32 5
  %106 = load ptr, ptr %105, align 8
  %107 = icmp ne ptr %106, null
  br i1 %107, label %108, label %142

108:                                              ; preds = %103, %98
  call void @llvm.lifetime.start.p0(i64 4, ptr %8) #16
  store i32 8, ptr %8, align 4
  %109 = load ptr, ptr %3, align 8
  %110 = getelementptr inbounds nuw %struct.par_shapes_mesh_s, ptr %109, i32 0, i32 5
  %111 = load ptr, ptr %110, align 8
  %112 = load i32, ptr %6, align 4
  %113 = mul nsw i32 2, %112
  %114 = sext i32 %113 to i64
  %115 = mul i64 4, %114
  %116 = call ptr @realloc(ptr noundef %111, i64 noundef %115) #18
  %117 = load ptr, ptr %3, align 8
  %118 = getelementptr inbounds nuw %struct.par_shapes_mesh_s, ptr %117, i32 0, i32 5
  store ptr %116, ptr %118, align 8
  %119 = load ptr, ptr %4, align 8
  %120 = getelementptr inbounds nuw %struct.par_shapes_mesh_s, ptr %119, i32 0, i32 5
  %121 = load ptr, ptr %120, align 8
  %122 = icmp ne ptr %121, null
  br i1 %122, label %123, label %141

123:                                              ; preds = %108
  %124 = load ptr, ptr %3, align 8
  %125 = getelementptr inbounds nuw %struct.par_shapes_mesh_s, ptr %124, i32 0, i32 5
  %126 = load ptr, ptr %125, align 8
  %127 = load i16, ptr %5, align 2
  %128 = zext i16 %127 to i32
  %129 = mul nsw i32 2, %128
  %130 = sext i32 %129 to i64
  %131 = getelementptr inbounds float, ptr %126, i64 %130
  %132 = load ptr, ptr %4, align 8
  %133 = getelementptr inbounds nuw %struct.par_shapes_mesh_s, ptr %132, i32 0, i32 5
  %134 = load ptr, ptr %133, align 8
  %135 = load i32, ptr %8, align 4
  %136 = load ptr, ptr %4, align 8
  %137 = getelementptr inbounds nuw %struct.par_shapes_mesh_s, ptr %136, i32 0, i32 1
  %138 = load i32, ptr %137, align 8
  %139 = mul nsw i32 %135, %138
  %140 = sext i32 %139 to i64
  call void @llvm.memcpy.p0.p0.i64(ptr align 4 %131, ptr align 4 %134, i64 %140, i1 false)
  br label %141

141:                                              ; preds = %123, %108
  call void @llvm.lifetime.end.p0(i64 4, ptr %8) #16
  br label %142

142:                                              ; preds = %141, %103
  call void @llvm.lifetime.start.p0(i64 4, ptr %9) #16
  %143 = load ptr, ptr %3, align 8
  %144 = getelementptr inbounds nuw %struct.par_shapes_mesh_s, ptr %143, i32 0, i32 3
  %145 = load i32, ptr %144, align 8
  %146 = load ptr, ptr %4, align 8
  %147 = getelementptr inbounds nuw %struct.par_shapes_mesh_s, ptr %146, i32 0, i32 3
  %148 = load i32, ptr %147, align 8
  %149 = add nsw i32 %145, %148
  store i32 %149, ptr %9, align 4
  %150 = load ptr, ptr %3, align 8
  %151 = getelementptr inbounds nuw %struct.par_shapes_mesh_s, ptr %150, i32 0, i32 2
  %152 = load ptr, ptr %151, align 8
  %153 = load i32, ptr %9, align 4
  %154 = mul nsw i32 3, %153
  %155 = sext i32 %154 to i64
  %156 = mul i64 2, %155
  %157 = call ptr @realloc(ptr noundef %152, i64 noundef %156) #18
  %158 = load ptr, ptr %3, align 8
  %159 = getelementptr inbounds nuw %struct.par_shapes_mesh_s, ptr %158, i32 0, i32 2
  store ptr %157, ptr %159, align 8
  call void @llvm.lifetime.start.p0(i64 8, ptr %10) #16
  %160 = load ptr, ptr %3, align 8
  %161 = getelementptr inbounds nuw %struct.par_shapes_mesh_s, ptr %160, i32 0, i32 2
  %162 = load ptr, ptr %161, align 8
  %163 = load ptr, ptr %3, align 8
  %164 = getelementptr inbounds nuw %struct.par_shapes_mesh_s, ptr %163, i32 0, i32 3
  %165 = load i32, ptr %164, align 8
  %166 = mul nsw i32 3, %165
  %167 = sext i32 %166 to i64
  %168 = getelementptr inbounds i16, ptr %162, i64 %167
  store ptr %168, ptr %10, align 8
  call void @llvm.lifetime.start.p0(i64 8, ptr %11) #16
  %169 = load ptr, ptr %4, align 8
  %170 = getelementptr inbounds nuw %struct.par_shapes_mesh_s, ptr %169, i32 0, i32 2
  %171 = load ptr, ptr %170, align 8
  store ptr %171, ptr %11, align 8
  call void @llvm.lifetime.start.p0(i64 4, ptr %12) #16
  store i32 0, ptr %12, align 4
  br label %172

172:                                              ; preds = %210, %142
  %173 = load i32, ptr %12, align 4
  %174 = load ptr, ptr %4, align 8
  %175 = getelementptr inbounds nuw %struct.par_shapes_mesh_s, ptr %174, i32 0, i32 3
  %176 = load i32, ptr %175, align 8
  %177 = icmp slt i32 %173, %176
  br i1 %177, label %179, label %178

178:                                              ; preds = %172
  call void @llvm.lifetime.end.p0(i64 4, ptr %12) #16
  br label %213

179:                                              ; preds = %172
  %180 = load i16, ptr %5, align 2
  %181 = zext i16 %180 to i32
  %182 = load ptr, ptr %11, align 8
  %183 = getelementptr inbounds nuw i16, ptr %182, i32 1
  store ptr %183, ptr %11, align 8
  %184 = load i16, ptr %182, align 2
  %185 = zext i16 %184 to i32
  %186 = add nsw i32 %181, %185
  %187 = trunc i32 %186 to i16
  %188 = load ptr, ptr %10, align 8
  %189 = getelementptr inbounds nuw i16, ptr %188, i32 1
  store ptr %189, ptr %10, align 8
  store i16 %187, ptr %188, align 2
  %190 = load i16, ptr %5, align 2
  %191 = zext i16 %190 to i32
  %192 = load ptr, ptr %11, align 8
  %193 = getelementptr inbounds nuw i16, ptr %192, i32 1
  store ptr %193, ptr %11, align 8
  %194 = load i16, ptr %192, align 2
  %195 = zext i16 %194 to i32
  %196 = add nsw i32 %191, %195
  %197 = trunc i32 %196 to i16
  %198 = load ptr, ptr %10, align 8
  %199 = getelementptr inbounds nuw i16, ptr %198, i32 1
  store ptr %199, ptr %10, align 8
  store i16 %197, ptr %198, align 2
  %200 = load i16, ptr %5, align 2
  %201 = zext i16 %200 to i32
  %202 = load ptr, ptr %11, align 8
  %203 = getelementptr inbounds nuw i16, ptr %202, i32 1
  store ptr %203, ptr %11, align 8
  %204 = load i16, ptr %202, align 2
  %205 = zext i16 %204 to i32
  %206 = add nsw i32 %201, %205
  %207 = trunc i32 %206 to i16
  %208 = load ptr, ptr %10, align 8
  %209 = getelementptr inbounds nuw i16, ptr %208, i32 1
  store ptr %209, ptr %10, align 8
  store i16 %207, ptr %208, align 2
  br label %210

210:                                              ; preds = %179
  %211 = load i32, ptr %12, align 4
  %212 = add nsw i32 %211, 1
  store i32 %212, ptr %12, align 4
  br label %172

213:                                              ; preds = %178
  %214 = load i32, ptr %9, align 4
  %215 = load ptr, ptr %3, align 8
  %216 = getelementptr inbounds nuw %struct.par_shapes_mesh_s, ptr %215, i32 0, i32 3
  store i32 %214, ptr %216, align 8
  call void @llvm.lifetime.end.p0(i64 8, ptr %11) #16
  call void @llvm.lifetime.end.p0(i64 8, ptr %10) #16
  call void @llvm.lifetime.end.p0(i64 4, ptr %9) #16
  call void @llvm.lifetime.end.p0(i64 4, ptr %7) #16
  call void @llvm.lifetime.end.p0(i64 4, ptr %6) #16
  call void @llvm.lifetime.end.p0(i64 2, ptr %5) #16
  ret void
}