; Function Attrs: nounwind uwtable
define hidden void @par_shapes_merge(ptr noundef captures(none) %0, ptr noundef readonly captures(none) %1) local_unnamed_addr #0 {
  %3 = getelementptr inbounds nuw i8, ptr %0, i64 8
  %4 = load i32, ptr %3, align 8
  %5 = getelementptr inbounds nuw i8, ptr %1, i64 8
  %6 = load i32, ptr %5, align 8
  %7 = add nsw i32 %6, %4
  %8 = load ptr, ptr %0, align 8
  %9 = mul nsw i32 %7, 3
  %10 = sext i32 %9 to i64
  %11 = shl nsw i64 %10, 2
  %12 = tail call ptr @realloc(ptr noundef %8, i64 noundef %11) #55
  store ptr %12, ptr %0, align 8
  %13 = load i32, ptr %3, align 8
  %14 = mul nsw i32 %13, 3
  %15 = sext i32 %14 to i64
  %16 = getelementptr inbounds float, ptr %12, i64 %15
  %17 = load ptr, ptr %1, align 8
  %18 = load i32, ptr %5, align 8
  %19 = mul nsw i32 %18, 12
  %20 = sext i32 %19 to i64
  tail call void @llvm.memcpy.p0.p0.i64(ptr align 4 %16, ptr align 4 %17, i64 %20, i1 false)
  store i32 %7, ptr %3, align 8
  %21 = getelementptr inbounds nuw i8, ptr %1, i64 32
  %22 = load ptr, ptr %21, align 8
  %.not = icmp eq ptr %22, null
  %23 = getelementptr inbounds nuw i8, ptr %0, i64 32
  %24 = load ptr, ptr %23, align 8
  %.not60 = icmp eq ptr %24, null
  %or.cond = select i1 %.not, i1 %.not60, i1 false
  br i1 %or.cond, label %36, label %._crit_edge68

._crit_edge68:                                    ; preds = %2
  %25 = getelementptr inbounds nuw i8, ptr %0, i64 32
  %26 = tail call ptr @realloc(ptr noundef %24, i64 noundef %11) #55
  store ptr %26, ptr %25, align 8
  %27 = load ptr, ptr %21, align 8
  %.not61 = icmp eq ptr %27, null
  br i1 %.not61, label %36, label %28

28:                                               ; preds = %._crit_edge68
  %29 = and i32 %4, 65535
  %30 = mul nuw nsw i32 %29, 3
  %31 = zext nneg i32 %30 to i64
  %32 = getelementptr inbounds nuw float, ptr %26, i64 %31
  %33 = load i32, ptr %5, align 8
  %34 = mul nsw i32 %33, 12
  %35 = sext i32 %34 to i64
  tail call void @llvm.memcpy.p0.p0.i64(ptr align 4 %32, ptr nonnull align 4 %27, i64 %35, i1 false)
  br label %36

36:                                               ; preds = %2, %._crit_edge68, %28
  %37 = getelementptr inbounds nuw i8, ptr %1, i64 40
  %38 = load ptr, ptr %37, align 8
  %.not62 = icmp eq ptr %38, null
  %39 = getelementptr inbounds nuw i8, ptr %0, i64 40
  %40 = load ptr, ptr %39, align 8
  %.not63 = icmp eq ptr %40, null
  %or.cond72 = select i1 %.not62, i1 %.not63, i1 false
  br i1 %or.cond72, label %55, label %._crit_edge69

._crit_edge69:                                    ; preds = %36
  %41 = getelementptr inbounds nuw i8, ptr %0, i64 40
  %42 = shl nsw i32 %7, 1
  %43 = sext i32 %42 to i64
  %44 = shl nsw i64 %43, 2
  %45 = tail call ptr @realloc(ptr noundef %40, i64 noundef %44) #55
  store ptr %45, ptr %41, align 8
  %46 = load ptr, ptr %37, align 8
  %.not64 = icmp eq ptr %46, null
  br i1 %.not64, label %55, label %47

47:                                               ; preds = %._crit_edge69
  %48 = shl i32 %4, 1
  %49 = and i32 %48, 131070
  %50 = zext nneg i32 %49 to i64
  %51 = getelementptr inbounds nuw float, ptr %45, i64 %50
  %52 = load i32, ptr %5, align 8
  %53 = shl nsw i32 %52, 3
  %54 = sext i32 %53 to i64
  tail call void @llvm.memcpy.p0.p0.i64(ptr align 4 %51, ptr nonnull align 4 %46, i64 %54, i1 false)
  br label %55

55:                                               ; preds = %36, %._crit_edge69, %47
  %56 = getelementptr inbounds nuw i8, ptr %0, i64 24
  %57 = load i32, ptr %56, align 8
  %58 = getelementptr inbounds nuw i8, ptr %1, i64 24
  %59 = load i32, ptr %58, align 8
  %60 = add nsw i32 %59, %57
  %61 = getelementptr inbounds nuw i8, ptr %0, i64 16
  %62 = load ptr, ptr %61, align 8
  %63 = mul nsw i32 %60, 3
  %64 = sext i32 %63 to i64
  %65 = shl nsw i64 %64, 1
  %66 = tail call ptr @realloc(ptr noundef %62, i64 noundef %65) #55
  store ptr %66, ptr %61, align 8
  %67 = load i32, ptr %58, align 8
  %68 = icmp sgt i32 %67, 0
  br i1 %68, label %.lr.ph, label %._crit_edge

.lr.ph:                                           ; preds = %55
  %69 = getelementptr inbounds nuw i8, ptr %1, i64 16
  %70 = load ptr, ptr %69, align 8
  %71 = load i32, ptr %56, align 8
  %72 = mul nsw i32 %71, 3
  %73 = sext i32 %72 to i64
  %74 = getelementptr inbounds i16, ptr %66, i64 %73
  %75 = trunc i32 %4 to i16
  br label %76

._crit_edge:                                      ; preds = %76, %55
  store i32 %60, ptr %56, align 8
  ret void

76:                                               ; preds = %.lr.ph, %76
  %.067 = phi i32 [ 0, %.lr.ph ], [ %89, %76 ]
  %.05666 = phi ptr [ %70, %.lr.ph ], [ %85, %76 ]
  %.05765 = phi ptr [ %74, %.lr.ph ], [ %88, %76 ]
  %77 = getelementptr inbounds nuw i8, ptr %.05666, i64 2
  %78 = load i16, ptr %.05666, align 2
  %79 = add i16 %78, %75
  %80 = getelementptr inbounds nuw i8, ptr %.05765, i64 2
  store i16 %79, ptr %.05765, align 2
  %81 = getelementptr inbounds nuw i8, ptr %.05666, i64 4
  %82 = load i16, ptr %77, align 2
  %83 = add i16 %82, %75
  %84 = getelementptr inbounds nuw i8, ptr %.05765, i64 4
  store i16 %83, ptr %80, align 2
  %85 = getelementptr inbounds nuw i8, ptr %.05666, i64 6
  %86 = load i16, ptr %81, align 2
  %87 = add i16 %86, %75
  %88 = getelementptr inbounds nuw i8, ptr %.05765, i64 6
  store i16 %87, ptr %84, align 2
  %89 = add nuw nsw i32 %.067, 1
  %exitcond.not = icmp eq i32 %89, %67
  br i1 %exitcond.not, label %._crit_edge, label %76
}